target datalayout = "e-m:e-p270:32:32-p271:32:32-p272:64:64-i64:64-i128:128-f80:128-n8:16:32:64-S128"
target triple = "x86_64-unknown-linux-gnu"

%"struct.rocksdb::(anonymous namespace)::StartThreadState" = type { ptr, ptr }

; Function Attrs: mustprogress uwtable
define internal noundef ptr @_ZN7rocksdb12_GLOBAL__N_118StartThreadWrapperEPv(ptr noundef %arg) #2 {
entry:
  %arg.addr = alloca ptr, align 8
  %state = alloca ptr, align 8
  store ptr %arg, ptr %arg.addr, align 8
  %0 = load ptr, ptr %arg.addr, align 8
  store ptr %0, ptr %state, align 8
  %1 = load ptr, ptr %state, align 8
  %user_function = getelementptr inbounds %"struct.rocksdb::(anonymous namespace)::StartThreadState", ptr %1, i32 0, i32 0
  %2 = load ptr, ptr %user_function, align 8
  %3 = load ptr, ptr %state, align 8
  %arg1 = getelementptr inbounds %"struct.rocksdb::(anonymous namespace)::StartThreadState", ptr %3, i32 0, i32 1
  %4 = load ptr, ptr %arg1, align 8
  call void %2(ptr noundef %4)
  %5 = load ptr, ptr %state, align 8
  %isnull = icmp eq ptr %5, null
  br i1 %isnull, label %delete.end, label %delete.notnull

delete.notnull:                                   ; preds = %entry
  call void @_ZdlPv(ptr noundef %5) #17
  br label %delete.end

delete.end:                                       ; preds = %delete.notnull, %entry
  ret ptr null
}