; Function Attrs: mustprogress uwtable
define internal noundef ptr @_ZN7rocksdb12_GLOBAL__N_118StartThreadWrapperEPv(ptr noundef %arg) #3 {
entry:
  %0 = load ptr, ptr %arg, align 8
  %arg1 = getelementptr inbounds i8, ptr %arg, i64 8
  %1 = load ptr, ptr %arg1, align 8
  tail call void %0(ptr noundef %1)
  tail call void @_ZdlPv(ptr noundef %arg) #24
  ret ptr null
}